; Function Attrs: mustprogress uwtable
define hidden void @_ZN4cvc58internal6theory11quantifiers14RelevantDomain7RDomain5mergeEPS4_(ptr nocapture noundef nonnull align 8 dereferenceable(32) %this, ptr noundef %r) local_unnamed_addr #3 align 2 personality ptr @__gxx_personality_v0 {
entry:
  %agg.tmp = alloca %"class.cvc5::internal::NodeTemplate", align 8
  %d_parent = getelementptr inbounds i8, ptr %this, i64 24
  store ptr %r, ptr %d_parent, align 8
  %_M_finish.i = getelementptr inbounds i8, ptr %this, i64 8
  %0 = load ptr, ptr %_M_finish.i, align 8
  %1 = load ptr, ptr %this, align 8
  %cmp23.not = icmp eq ptr %0, %1
  br i1 %cmp23.not, label %_ZNSt6vectorIN4cvc58internal12NodeTemplateILb1EEESaIS3_EE5clearEv.exit, label %for.body

for.body:                                         ; preds = %entry, %_ZN4cvc58internal12NodeTemplateILb1EED2Ev.exit
  %2 = phi ptr [ %10, %_ZN4cvc58internal12NodeTemplateILb1EED2Ev.exit ], [ %1, %entry ]
  %conv25 = phi i64 [ %conv, %_ZN4cvc58internal12NodeTemplateILb1EED2Ev.exit ], [ 0, %entry ]
  %i.024 = phi i32 [ %inc, %_ZN4cvc58internal12NodeTemplateILb1EED2Ev.exit ], [ 0, %entry ]
  %add.ptr.i = getelementptr inbounds %"class.cvc5::internal::NodeTemplate", ptr %2, i64 %conv25
  %3 = load ptr, ptr %add.ptr.i, align 8
  store ptr %3, ptr %agg.tmp, align 8
  %bf.load.i.i = load i64, ptr %3, align 8
  %bf.lshr.i.i = lshr i64 %bf.load.i.i, 40
  %4 = trunc i64 %bf.lshr.i.i to i32
  %bf.cast.i.i = and i32 %4, 1048575
  %cmp.i.i = icmp ult i32 %bf.cast.i.i, 1048574
  br i1 %cmp.i.i, label %if.then.i.i, label %if.else.i.i

if.then.i.i:                                      ; preds = %for.body
  %bf.value.i.i = add i64 %bf.load.i.i, 1099511627776
  %bf.shl.i.i = and i64 %bf.value.i.i, 1152920405095219200
  %bf.clear7.i.i = and i64 %bf.load.i.i, -1152920405095219201
  %bf.set.i.i = or disjoint i64 %bf.shl.i.i, %bf.clear7.i.i
  store i64 %bf.set.i.i, ptr %3, align 8
  br label %_ZN4cvc58internal12NodeTemplateILb1EEC2ERKS2_.exit

if.else.i.i:                                      ; preds = %for.body
  %cmp12.i.i = icmp eq i32 %bf.cast.i.i, 1048574
  br i1 %cmp12.i.i, label %if.then13.i.i, label %_ZN4cvc58internal12NodeTemplateILb1EEC2ERKS2_.exit

if.then13.i.i:                                    ; preds = %if.else.i.i
  %bf.set23.i.i = or i64 %bf.load.i.i, 1152920405095219200
  store i64 %bf.set23.i.i, ptr %3, align 8
  call void @_ZN4cvc58internal4expr9NodeValue20markRefCountMaxedOutEv(ptr noundef nonnull align 8 dereferenceable(16) %3)
  br label %_ZN4cvc58internal12NodeTemplateILb1EEC2ERKS2_.exit

_ZN4cvc58internal12NodeTemplateILb1EEC2ERKS2_.exit: ; preds = %if.then.i.i, %if.else.i.i, %if.then13.i.i
  invoke void @_ZN4cvc58internal6theory11quantifiers14RelevantDomain7RDomain7addTermENS0_12NodeTemplateILb1EEE(ptr noundef nonnull align 8 dereferenceable(32) %r, ptr noundef nonnull %agg.tmp)
          to label %invoke.cont unwind label %lpad

invoke.cont:                                      ; preds = %_ZN4cvc58internal12NodeTemplateILb1EEC2ERKS2_.exit
  %5 = load ptr, ptr %agg.tmp, align 8
  %bf.load.i.i4 = load i64, ptr %5, align 8
  %6 = and i64 %bf.load.i.i4, 1152920405095219200
  %cmp.not.i.i = icmp eq i64 %6, 1152920405095219200
  br i1 %cmp.not.i.i, label %_ZN4cvc58internal12NodeTemplateILb1EED2Ev.exit, label %if.then.i.i5

if.then.i.i5:                                     ; preds = %invoke.cont
  %bf.value.i.i6 = add i64 %bf.load.i.i4, 1152920405095219200
  %bf.shl.i.i7 = and i64 %bf.value.i.i6, 1152920405095219200
  %bf.clear7.i.i8 = and i64 %bf.load.i.i4, -1152920405095219201
  %bf.set.i.i9 = or disjoint i64 %bf.shl.i.i7, %bf.clear7.i.i8
  store i64 %bf.set.i.i9, ptr %5, align 8
  %cmp12.i.i10 = icmp eq i64 %bf.shl.i.i7, 0
  br i1 %cmp12.i.i10, label %if.then13.i.i11, label %_ZN4cvc58internal12NodeTemplateILb1EED2Ev.exit

if.then13.i.i11:                                  ; preds = %if.then.i.i5
  invoke void @_ZN4cvc58internal4expr9NodeValue15markForDeletionEv(ptr noundef nonnull align 8 dereferenceable(16) %5)
          to label %_ZN4cvc58internal12NodeTemplateILb1EED2Ev.exit unwind label %terminate.lpad.i

terminate.lpad.i:                                 ; preds = %if.then13.i.i11
  %7 = landingpad { ptr, i32 }
          catch ptr null
  %8 = extractvalue { ptr, i32 } %7, 0
  call void @__clang_call_terminate(ptr %8) #19
  unreachable

_ZN4cvc58internal12NodeTemplateILb1EED2Ev.exit:   ; preds = %invoke.cont, %if.then.i.i5, %if.then13.i.i11
  %inc = add i32 %i.024, 1
  %conv = zext i32 %inc to i64
  %9 = load ptr, ptr %_M_finish.i, align 8
  %10 = load ptr, ptr %this, align 8
  %sub.ptr.lhs.cast.i = ptrtoint ptr %9 to i64
  %sub.ptr.rhs.cast.i = ptrtoint ptr %10 to i64
  %sub.ptr.sub.i = sub i64 %sub.ptr.lhs.cast.i, %sub.ptr.rhs.cast.i
  %sub.ptr.div.i = ashr exact i64 %sub.ptr.sub.i, 3
  %cmp = icmp ugt i64 %sub.ptr.div.i, %conv
  br i1 %cmp, label %for.body, label %for.end, !llvm.loop !4

lpad:                                             ; preds = %_ZN4cvc58internal12NodeTemplateILb1EEC2ERKS2_.exit
  %11 = landingpad { ptr, i32 }
          cleanup
  call void @_ZN4cvc58internal12NodeTemplateILb1EED2Ev(ptr noundef nonnull align 8 dereferenceable(8) %agg.tmp) #20
  resume { ptr, i32 } %11

for.end:                                          ; preds = %_ZN4cvc58internal12NodeTemplateILb1EED2Ev.exit
  %tobool.not.i.i = icmp eq ptr %9, %10
  br i1 %tobool.not.i.i, label %_ZNSt6vectorIN4cvc58internal12NodeTemplateILb1EEESaIS3_EE5clearEv.exit, label %for.body.i.i.i.i.i

for.body.i.i.i.i.i:                               ; preds = %for.end, %_ZSt8_DestroyIN4cvc58internal12NodeTemplateILb1EEEEvPT_.exit.i.i.i.i.i
  %__first.addr.04.i.i.i.i.i = phi ptr [ %incdec.ptr.i.i.i.i.i, %_ZSt8_DestroyIN4cvc58internal12NodeTemplateILb1EEEEvPT_.exit.i.i.i.i.i ], [ %10, %for.end ]
  %12 = load ptr, ptr %__first.addr.04.i.i.i.i.i, align 8
  %bf.load.i.i.i.i.i.i.i.i = load i64, ptr %12, align 8
  %13 = and i64 %bf.load.i.i.i.i.i.i.i.i, 1152920405095219200
  %cmp.not.i.i.i.i.i.i.i.i = icmp eq i64 %13, 1152920405095219200
  br i1 %cmp.not.i.i.i.i.i.i.i.i, label %_ZSt8_DestroyIN4cvc58internal12NodeTemplateILb1EEEEvPT_.exit.i.i.i.i.i, label %if.then.i.i.i.i.i.i.i.i

if.then.i.i.i.i.i.i.i.i:                          ; preds = %for.body.i.i.i.i.i
  %bf.value.i.i.i.i.i.i.i.i = add i64 %bf.load.i.i.i.i.i.i.i.i, 1152920405095219200
  %bf.shl.i.i.i.i.i.i.i.i = and i64 %bf.value.i.i.i.i.i.i.i.i, 1152920405095219200
  %bf.clear7.i.i.i.i.i.i.i.i = and i64 %bf.load.i.i.i.i.i.i.i.i, -1152920405095219201
  %bf.set.i.i.i.i.i.i.i.i = or disjoint i64 %bf.shl.i.i.i.i.i.i.i.i, %bf.clear7.i.i.i.i.i.i.i.i
  store i64 %bf.set.i.i.i.i.i.i.i.i, ptr %12, align 8
  %cmp12.i.i.i.i.i.i.i.i = icmp eq i64 %bf.shl.i.i.i.i.i.i.i.i, 0
  br i1 %cmp12.i.i.i.i.i.i.i.i, label %if.then13.i.i.i.i.i.i.i.i, label %_ZSt8_DestroyIN4cvc58internal12NodeTemplateILb1EEEEvPT_.exit.i.i.i.i.i

if.then13.i.i.i.i.i.i.i.i:                        ; preds = %if.then.i.i.i.i.i.i.i.i
  invoke void @_ZN4cvc58internal4expr9NodeValue15markForDeletionEv(ptr noundef nonnull align 8 dereferenceable(16) %12)
          to label %_ZSt8_DestroyIN4cvc58internal12NodeTemplateILb1EEEEvPT_.exit.i.i.i.i.i unwind label %terminate.lpad.i.i.i.i.i.i.i

terminate.lpad.i.i.i.i.i.i.i:                     ; preds = %if.then13.i.i.i.i.i.i.i.i
  %14 = landingpad { ptr, i32 }
          catch ptr null
  %15 = extractvalue { ptr, i32 } %14, 0
  call void @__clang_call_terminate(ptr %15) #19
  unreachable

_ZSt8_DestroyIN4cvc58internal12NodeTemplateILb1EEEEvPT_.exit.i.i.i.i.i: ; preds = %if.then13.i.i.i.i.i.i.i.i, %if.then.i.i.i.i.i.i.i.i, %for.body.i.i.i.i.i
  %incdec.ptr.i.i.i.i.i = getelementptr inbounds i8, ptr %__first.addr.04.i.i.i.i.i, i64 8
  %cmp.not.i.i.i.i.i = icmp eq ptr %incdec.ptr.i.i.i.i.i, %9
  br i1 %cmp.not.i.i.i.i.i, label %invoke.cont.i.i, label %for.body.i.i.i.i.i, !llvm.loop !6

invoke.cont.i.i:                                  ; preds = %_ZSt8_DestroyIN4cvc58internal12NodeTemplateILb1EEEEvPT_.exit.i.i.i.i.i
  store ptr %10, ptr %_M_finish.i, align 8
  br label %_ZNSt6vectorIN4cvc58internal12NodeTemplateILb1EEESaIS3_EE5clearEv.exit

_ZNSt6vectorIN4cvc58internal12NodeTemplateILb1EEESaIS3_EE5clearEv.exit: ; preds = %entry, %for.end, %invoke.cont.i.i
  ret void
}